; Function Attrs: cold nounwind optsize uwtable
define internal void @uninit(ptr noundef readonly captures(none) %0) #3 {
  %2 = getelementptr inbounds nuw i8, ptr %0, i64 72
  %3 = load ptr, ptr %2, align 8, !tbaa !25
  %4 = getelementptr inbounds nuw i8, ptr %3, i64 128
  tail call void @av_frame_free(ptr noundef nonnull %4) #11
  %5 = getelementptr inbounds nuw i8, ptr %3, i64 136
  tail call void @av_frame_free(ptr noundef nonnull %5) #11
  ret void
}